target datalayout = "e-m:e-p270:32:32-p271:32:32-p272:64:64-i64:64-i128:128-f80:128-n8:16:32:64-S128"
target triple = "x86_64-pc-linux-gnu"

%struct.NODE = type { ptr, ptr, ptr }
%struct.PLAINTREE = type { ptr, i32, i32 }

; Function Attrs: nounwind uwtable
define internal ptr @plaintree(ptr noundef %0, ptr noundef %1) #0 {
  %3 = alloca ptr, align 8
  %4 = alloca ptr, align 8
  %5 = alloca %struct.PLAINTREE, align 8
  store ptr %0, ptr %3, align 8
  store ptr %1, ptr %4, align 8
  call void @llvm.lifetime.start.p0(i64 16, ptr %5) #5
  %6 = getelementptr inbounds nuw %struct.PLAINTREE, ptr %5, i32 0, i32 2
  store i32 0, ptr %6, align 4
  %7 = getelementptr inbounds nuw %struct.PLAINTREE, ptr %5, i32 0, i32 1
  store i32 16, ptr %7, align 8
  %8 = load ptr, ptr %3, align 8
  %9 = icmp ne ptr %8, null
  br i1 %9, label %10, label %32

10:                                               ; preds = %2
  %11 = load ptr, ptr %3, align 8
  %12 = getelementptr inbounds nuw %struct.NODE, ptr %11, i32 0, i32 2
  %13 = load ptr, ptr %12, align 8
  %14 = load i8, ptr %13, align 4
  %15 = sext i8 %14 to i32
  %16 = icmp eq i32 %15, 1
  br i1 %16, label %24, label %17

17:                                               ; preds = %10
  %18 = load ptr, ptr %3, align 8
  %19 = getelementptr inbounds nuw %struct.NODE, ptr %18, i32 0, i32 2
  %20 = load ptr, ptr %19, align 8
  %21 = load i8, ptr %20, align 4
  %22 = sext i8 %21 to i32
  %23 = icmp eq i32 %22, 2
  br i1 %23, label %24, label %32

24:                                               ; preds = %17, %10
  %25 = getelementptr inbounds nuw %struct.PLAINTREE, ptr %5, i32 0, i32 1
  %26 = load i32, ptr %25, align 8
  %27 = sext i32 %26 to i64
  %28 = mul i64 %27, 12
  %29 = call ptr @palloc(i64 noundef %28)
  %30 = getelementptr inbounds nuw %struct.PLAINTREE, ptr %5, i32 0, i32 0
  store ptr %29, ptr %30, align 8
  %31 = load ptr, ptr %3, align 8
  call void @plainnode(ptr noundef %5, ptr noundef %31)
  br label %34

32:                                               ; preds = %17, %2
  %33 = getelementptr inbounds nuw %struct.PLAINTREE, ptr %5, i32 0, i32 0
  store ptr null, ptr %33, align 8
  br label %34

34:                                               ; preds = %32, %24
  %35 = getelementptr inbounds nuw %struct.PLAINTREE, ptr %5, i32 0, i32 2
  %36 = load i32, ptr %35, align 4
  %37 = load ptr, ptr %4, align 8
  store i32 %36, ptr %37, align 4
  %38 = getelementptr inbounds nuw %struct.PLAINTREE, ptr %5, i32 0, i32 0
  %39 = load ptr, ptr %38, align 8
  call void @llvm.lifetime.end.p0(i64 16, ptr %5) #5
  ret ptr %39
}

; Function Attrs: nounwind uwtable
define dso_local ptr @clean_NOT(ptr noundef %0, ptr noundef %1) #0 {
  %3 = alloca ptr, align 8
  %4 = alloca ptr, align 8
  %5 = alloca ptr, align 8
  store ptr %0, ptr %3, align 8
  store ptr %1, ptr %4, align 8
  call void @llvm.lifetime.start.p0(i64 8, ptr %5) #5
  %6 = load ptr, ptr %3, align 8
  %7 = call ptr @maketree(ptr noundef %6)
  store ptr %7, ptr %5, align 8
  %8 = load ptr, ptr %5, align 8
  %9 = call ptr @clean_NOT_intree(ptr noundef %8)
  %10 = load ptr, ptr %4, align 8
  %11 = call ptr @plaintree(ptr noundef %9, ptr noundef %10)
  call void @llvm.lifetime.end.p0(i64 8, ptr %5) #5
  ret ptr %11
}