; Function Attrs: nounwind uwtable
define dso_local ptr @clean_NOT(ptr noundef %0, ptr noundef writeonly captures(none) initializes((0, 4)) %1) local_unnamed_addr #0 {
  %3 = alloca %struct.PLAINTREE, align 8
  %4 = tail call fastcc ptr @maketree(ptr noundef %0)
  %5 = tail call fastcc ptr @clean_NOT_intree(ptr noundef %4)
  call void @llvm.lifetime.start.p0(i64 16, ptr nonnull %3) #7
  %6 = getelementptr inbounds nuw i8, ptr %3, i64 12
  store i32 0, ptr %6, align 4
  %7 = getelementptr inbounds nuw i8, ptr %3, i64 8
  store i32 16, ptr %7, align 8
  %.not.i = icmp eq ptr %5, null
  br i1 %.not.i, label %plaintree.exit, label %8

8:                                                ; preds = %2
  %9 = getelementptr inbounds nuw i8, ptr %5, i64 16
  %10 = load ptr, ptr %9, align 8
  %11 = load i8, ptr %10, align 4
  %.off.i = add i8 %11, -1
  %switch.i = icmp ult i8 %.off.i, 2
  br i1 %switch.i, label %12, label %plaintree.exit

12:                                               ; preds = %8
  %13 = tail call ptr @palloc(i64 noundef 192) #7
  store ptr %13, ptr %3, align 8
  call fastcc void @plainnode(ptr noundef %3, ptr noundef nonnull %5)
  %.pre.i = load i32, ptr %6, align 4
  %.pre6.i = load ptr, ptr %3, align 8
  br label %plaintree.exit

plaintree.exit:                                   ; preds = %2, %8, %12
  %14 = phi ptr [ %.pre6.i, %12 ], [ null, %8 ], [ null, %2 ]
  %15 = phi i32 [ %.pre.i, %12 ], [ 0, %8 ], [ 0, %2 ]
  store i32 %15, ptr %1, align 4
  call void @llvm.lifetime.end.p0(i64 16, ptr nonnull %3) #7
  ret ptr %14
}